; Function Attrs: nounwind uwtable
define internal range(i32 0, 9) i32 @ctrl_get_tile_size(ptr nocapture noundef readonly %0, ptr nocapture noundef %1) #0 {
  %3 = alloca i32, align 4
  %4 = alloca i32, align 4
  %5 = load i32, ptr %1, align 8
  %6 = icmp ult i32 %5, 41
  br i1 %6, label %7, label %13

7:                                                ; preds = %2
  %8 = getelementptr inbounds nuw i8, ptr %1, i64 16
  %9 = load ptr, ptr %8, align 8
  %10 = zext nneg i32 %5 to i64
  %11 = getelementptr i8, ptr %9, i64 %10
  %12 = add nuw nsw i32 %5, 8
  store i32 %12, ptr %1, align 8
  br label %17

13:                                               ; preds = %2
  %14 = getelementptr inbounds nuw i8, ptr %1, i64 8
  %15 = load ptr, ptr %14, align 8
  %16 = getelementptr i8, ptr %15, i64 8
  store ptr %16, ptr %14, align 8
  br label %17

17:                                               ; preds = %13, %7
  %18 = phi ptr [ %11, %7 ], [ %15, %13 ]
  %19 = load ptr, ptr %18, align 8
  %20 = getelementptr inbounds nuw i8, ptr %0, i64 27120
  %21 = load ptr, ptr %20, align 8
  %.not = icmp eq ptr %19, null
  br i1 %.not, label %33, label %22

22:                                               ; preds = %17
  %.not11 = icmp eq ptr %21, null
  br i1 %.not11, label %33, label %23

23:                                               ; preds = %22
  %24 = getelementptr inbounds nuw i8, ptr %21, i64 32
  %25 = load ptr, ptr %24, align 8
  %26 = load ptr, ptr %25, align 8
  %27 = getelementptr inbounds nuw i8, ptr %26, i64 47968
  call void @av1_get_uniform_tile_size(ptr noundef nonnull %27, ptr noundef nonnull %3, ptr noundef nonnull %4) #12
  %28 = load i32, ptr %3, align 4
  %29 = shl i32 %28, 18
  %30 = load i32, ptr %4, align 4
  %31 = shl nsw i32 %30, 2
  %32 = add nsw i32 %31, %29
  store i32 %32, ptr %19, align 4
  br label %33

33:                                               ; preds = %17, %22, %23
  %.0 = phi i32 [ 0, %23 ], [ 1, %22 ], [ 8, %17 ]
  ret i32 %.0
}